target datalayout = "e-m:e-p270:32:32-p271:32:32-p272:64:64-i64:64-i128:128-f80:128-n8:16:32:64-S128"
target triple = "x86_64-pc-linux-gnu"

@.str.2 = private unnamed_addr constant [17 x i8] c"extended_stats.c\00", align 1
@.str.5 = private unnamed_addr constant [41 x i8] c"unexpected statistics type requested: %d\00", align 1
@__func__.statext_is_kind_built = private unnamed_addr constant [22 x i8] c"statext_is_kind_built\00", align 1

; Function Attrs: nounwind uwtable
define dso_local zeroext i1 @statext_is_kind_built(ptr noundef %0, i8 noundef signext %1) #0 {
  %3 = alloca ptr, align 8
  %4 = alloca i8, align 1
  %5 = alloca i16, align 2
  store ptr %0, ptr %3, align 8
  store i8 %1, ptr %4, align 1
  call void @llvm.lifetime.start.p0(i64 2, ptr %5) #8
  %6 = load i8, ptr %4, align 1
  %7 = sext i8 %6 to i32
  switch i32 %7, label %12 [
    i32 100, label %8
    i32 102, label %9
    i32 109, label %10
    i32 101, label %11
  ]

8:                                                ; preds = %2
  store i16 3, ptr %5, align 2
  br label %25

9:                                                ; preds = %2
  store i16 4, ptr %5, align 2
  br label %25

10:                                               ; preds = %2
  store i16 5, ptr %5, align 2
  br label %25

11:                                               ; preds = %2
  store i16 6, ptr %5, align 2
  br label %25

12:                                               ; preds = %2
  br label %13

13:                                               ; preds = %12
  br i1 true, label %14, label %16

14:                                               ; preds = %13
  %15 = call zeroext i1 @errstart_cold(i32 noundef 21, ptr noundef null) #9
  br i1 %15, label %18, label %22

16:                                               ; preds = %13
  %17 = call zeroext i1 @errstart(i32 noundef 21, ptr noundef null)
  br i1 %17, label %18, label %22

18:                                               ; preds = %16, %14
  %19 = load i8, ptr %4, align 1
  %20 = sext i8 %19 to i32
  %21 = call i32 (ptr, ...) @errmsg_internal(ptr noundef @.str.5, i32 noundef %20)
  call void @errfinish(ptr noundef @.str.2, i32 noundef 409, ptr noundef @__func__.statext_is_kind_built)
  br label %22

22:                                               ; preds = %18, %16, %14
  unreachable

23:                                               ; No predecessors!
  br label %24

24:                                               ; preds = %23
  br label %25

25:                                               ; preds = %24, %11, %10, %9, %8
  %26 = load ptr, ptr %3, align 8
  %27 = load i16, ptr %5, align 2
  %28 = sext i16 %27 to i32
  %29 = call zeroext i1 @heap_attisnull(ptr noundef %26, i32 noundef %28, ptr noundef null)
  %30 = xor i1 %29, true
  call void @llvm.lifetime.end.p0(i64 2, ptr %5) #8
  ret i1 %30
}