; Function Attrs: nounwind uwtable
define dso_local zeroext i1 @statext_is_kind_built(ptr noundef %0, i8 noundef signext %1) local_unnamed_addr #0 {
  %switch.tableidx = add i8 %1, -100
  %3 = icmp ult i8 %switch.tableidx, 10
  br i1 %3, label %switch.hole_check, label %4

4:                                                ; preds = %switch.hole_check, %2
  %5 = sext i8 %1 to i32
  %6 = tail call zeroext i1 @errstart_cold(i32 noundef 21, ptr noundef null) #11
  tail call void @llvm.assume(i1 %6)
  %7 = tail call i32 (ptr, ...) @errmsg_internal(ptr noundef nonnull @.str.5, i32 noundef %5) #10
  tail call void @errfinish(ptr noundef nonnull @.str.2, i32 noundef 409, ptr noundef nonnull @__func__.statext_is_kind_built) #10
  unreachable

switch.hole_check:                                ; preds = %2
  %switch.maskindex = zext nneg i8 %switch.tableidx to i16
  %switch.shifted = lshr i16 519, %switch.maskindex
  %switch.lobit = trunc i16 %switch.shifted to i1
  br i1 %switch.lobit, label %switch.lookup, label %4

switch.lookup:                                    ; preds = %switch.hole_check
  %8 = zext nneg i8 %switch.tableidx to i64
  %switch.gep = getelementptr inbounds nuw [10 x i32], ptr @switch.table.statext_is_kind_built, i64 0, i64 %8
  %switch.load = load i32, ptr %switch.gep, align 4
  %9 = tail call zeroext i1 @heap_attisnull(ptr noundef %0, i32 noundef %switch.load, ptr noundef null) #10
  %10 = xor i1 %9, true
  ret i1 %10
}